; Function Attrs: mustprogress nounwind uwtable
define hidden void @_ZN6hermes3hbc20BCProviderFromBuffer18updateBytecodeHashEN4llvh15MutableArrayRefIhEE(ptr %aref.coerce0, i64 %aref.coerce1) local_unnamed_addr #0 align 2 {
entry:
  %actual.i = alloca %"struct.std::array", align 1
  call void @llvm.lifetime.start.p0(i64 20, ptr nonnull %actual.i)
  %fileLength.i = getelementptr inbounds i8, ptr %aref.coerce0, i64 32
  %0 = load i32, ptr %fileLength.i, align 1
  %idx.ext.i = zext i32 %0 to i64
  %add.ptr.i = getelementptr inbounds i8, ptr %aref.coerce0, i64 %idx.ext.i
  %add.ptr2.i = getelementptr inbounds i8, ptr %add.ptr.i, i64 -20
  %sub.ptr.lhs.cast.i.i = ptrtoint ptr %add.ptr2.i to i64
  %sub.ptr.rhs.cast.i.i = ptrtoint ptr %aref.coerce0 to i64
  %sub.ptr.sub.i.i = sub i64 %sub.ptr.lhs.cast.i.i, %sub.ptr.rhs.cast.i.i
  call void @_ZN4llvh4SHA14hashENS_8ArrayRefIhEE(ptr nonnull sret(%"struct.std::array") align 1 %actual.i, ptr %aref.coerce0, i64 %sub.ptr.sub.i.i) #19
  call void @llvm.memcpy.p0.p0.i64(ptr noundef nonnull align 1 dereferenceable(20) %add.ptr2.i, ptr noundef nonnull align 1 dereferenceable(20) %actual.i, i64 20, i1 false)
  call void @llvm.lifetime.end.p0(i64 20, ptr nonnull %actual.i)
  ret void
}